target datalayout = "e-m:e-p270:32:32-p271:32:32-p272:64:64-i64:64-i128:128-f80:128-n8:16:32:64-S128"
target triple = "x86_64-pc-linux-gnu"

%struct._VAConfigAttrib = type { i32, i32 }
%struct.VAAPIEncodeContext = type { %struct.FFHWBaseEncodeContext, ptr, i32, i32, i32, i32, i32, i32, ptr, ptr, i32, i32, i32, i32, i32, i32, [4 x %struct._VAConfigAttrib], i32, i32, i32, ptr, ptr, [4 x i32], [4 x ptr], [4 x i64], i32, %struct._VAEncMiscParameterRateControl, %struct._VAEncMiscParameterHRD, %struct._VAEncMiscParameterFrameRate, %struct._VAEncMiscParameterBufferMaxFrameSize, %struct._VAEncMiscParameterBufferQualityLevel, ptr, ptr, i32, i32, i32, i32, i32, i32, [20 x i32], [22 x i32], [21 x i32], [23 x i32], i32, i32, ptr, i32, i32 }
%struct.FFHWBaseEncodeContext = type { ptr, ptr, ptr, i32, i32, i32, i32, i32, i32, ptr, ptr, ptr, ptr, ptr, ptr, ptr, ptr, [2 x ptr], i32, i64, i64, i64, i64, i64, i64, i64, [112 x i64], i32, i32, i32, i32, i32, i32, i32, i32, i32, i32, i32, i32, i32, i32, i32, i32, ptr, i32, ptr, i32, ptr }
%struct._VAEncMiscParameterRateControl = type { i32, i32, i32, i32, i32, i32, %union.anon.2, i32, i32, i32, i32, [4 x i32] }
%union.anon.2 = type { %struct.anon }
%struct.anon = type { i32 }
%struct._VAEncMiscParameterHRD = type { i32, i32, [4 x i32] }
%struct._VAEncMiscParameterFrameRate = type { i32, %union.anon.3, [4 x i32] }
%union.anon.3 = type { %struct.anon.4 }
%struct.anon.4 = type { i32 }
%struct._VAEncMiscParameterBufferMaxFrameSize = type { i32, i32, [4 x i32] }
%struct._VAEncMiscParameterBufferQualityLevel = type { i32, [4 x i32] }
%struct.VAAPIEncodeAV1Context = type { %struct.VAAPIEncodeContext, %struct.AV1RawOBU, %struct.AV1RawOBU, [4 x %struct.AV1RawOBU], i32, ptr, %struct.CodedBitstreamFragment, %union._VAConfigAttribValEncAV1, %union._VAConfigAttribValEncAV1Ext1, %union._VAConfigAttribValEncAV1Ext2, [1024 x i8], i64, [1024 x i8], i64, i8, i8, i32, i32, i32, i32, i32, i32, [64 x i8], [64 x i8], i32, i32, i32, i32, i32, i32, i32, i32, i32, i32, i32, i32, i32, i32, i32, i32, i32 }
%struct.AV1RawOBU = type { %struct.AV1RawOBUHeader, i64, %union.anon.5 }
%struct.AV1RawOBUHeader = type { i8, i8, i8, i8, i8, i8, i8, i8 }
%union.anon.5 = type { %struct.AV1RawMetadata }
%struct.AV1RawMetadata = type { i64, %union.anon.6 }
%union.anon.6 = type { %struct.AV1RawMetadataITUTT35, [2800 x i8] }
%struct.AV1RawMetadataITUTT35 = type { i8, i8, ptr, ptr, i64 }
%struct.CodedBitstreamFragment = type { ptr, i64, i64, ptr, i32, i32, ptr }
%union._VAConfigAttribValEncAV1 = type { %struct.anon.7 }
%struct.anon.7 = type { i32 }
%union._VAConfigAttribValEncAV1Ext1 = type { %struct.anon.8 }
%struct.anon.8 = type { i32 }
%union._VAConfigAttribValEncAV1Ext2 = type { %struct.anon.9 }
%struct.anon.9 = type { i32 }
%struct.PutBitContext = type { i32, i32, ptr, ptr, ptr }

@.str.75 = private unnamed_addr constant [30 x i8] c"Assertion %s failed at %s:%d\0A\00", align 1
@.str.76 = private unnamed_addr constant [19 x i8] c"position >= length\00", align 1
@.str.77 = private unnamed_addr constant [30 x i8] c"libavcodec/vaapi_encode_av1.c\00", align 1
@.str.78 = private unnamed_addr constant [11 x i8] c"base_q_idx\00", align 1
@.str.79 = private unnamed_addr constant [21 x i8] c"loop_filter_level[0]\00", align 1
@.str.80 = private unnamed_addr constant [21 x i8] c"cdef_damping_minus_3\00", align 1
@.str.81 = private unnamed_addr constant [24 x i8] c"cdef_uv_sec_strength[i]\00", align 1

; Function Attrs: inlinehint nounwind uwtable
define internal i32 @put_bits_count(ptr noundef %0) #6 {
  %2 = alloca ptr, align 8
  store ptr %0, ptr %2, align 8, !tbaa !348
  %3 = load ptr, ptr %2, align 8, !tbaa !348
  %4 = getelementptr inbounds nuw %struct.PutBitContext, ptr %3, i32 0, i32 3
  %5 = load ptr, ptr %4, align 8, !tbaa !350
  %6 = load ptr, ptr %2, align 8, !tbaa !348
  %7 = getelementptr inbounds nuw %struct.PutBitContext, ptr %6, i32 0, i32 2
  %8 = load ptr, ptr %7, align 8, !tbaa !352
  %9 = ptrtoint ptr %5 to i64
  %10 = ptrtoint ptr %8 to i64
  %11 = sub i64 %9, %10
  %12 = mul nsw i64 %11, 8
  %13 = add nsw i64 %12, 32
  %14 = load ptr, ptr %2, align 8, !tbaa !348
  %15 = getelementptr inbounds nuw %struct.PutBitContext, ptr %14, i32 0, i32 1
  %16 = load i32, ptr %15, align 4, !tbaa !353
  %17 = sext i32 %16 to i64
  %18 = sub nsw i64 %13, %17
  %19 = trunc i64 %18 to i32
  ret i32 %19
}

; Function Attrs: nounwind uwtable
define internal void @vaapi_encode_av1_trace_write_log(ptr noundef %0, ptr noundef %1, i32 noundef %2, ptr noundef %3, ptr noundef %4, i64 noundef %5) #3 {
  %7 = alloca ptr, align 8
  %8 = alloca ptr, align 8
  %9 = alloca i32, align 4
  %10 = alloca ptr, align 8
  %11 = alloca ptr, align 8
  %12 = alloca i64, align 8
  %13 = alloca ptr, align 8
  %14 = alloca i32, align 4
  store ptr %0, ptr %7, align 8, !tbaa !347
  store ptr %1, ptr %8, align 8, !tbaa !348
  store i32 %2, ptr %9, align 4, !tbaa !64
  store ptr %3, ptr %10, align 8, !tbaa !339
  store ptr %4, ptr %11, align 8, !tbaa !346
  store i64 %5, ptr %12, align 8, !tbaa !342
  call void @llvm.lifetime.start.p0(i64 8, ptr %13) #12
  %15 = load ptr, ptr %7, align 8, !tbaa !347
  store ptr %15, ptr %13, align 8, !tbaa !31
  call void @llvm.lifetime.start.p0(i64 4, ptr %14) #12
  %16 = load ptr, ptr %8, align 8, !tbaa !348
  %17 = call i32 @put_bits_count(ptr noundef %16)
  store i32 %17, ptr %14, align 4, !tbaa !64
  br label %18

18:                                               ; preds = %6
  %19 = load i32, ptr %14, align 4, !tbaa !64
  %20 = load i32, ptr %9, align 4, !tbaa !64
  %21 = icmp sge i32 %19, %20
  br i1 %21, label %23, label %22

22:                                               ; preds = %18
  call void (ptr, i32, ptr, ...) @av_log(ptr noundef null, i32 noundef 0, ptr noundef @.str.75, ptr noundef @.str.76, ptr noundef @.str.77, i32 noundef 101)
  call void @abort() #14
  unreachable

23:                                               ; preds = %18
  br label %24

24:                                               ; preds = %23
  br label %25

25:                                               ; preds = %24
  %26 = load ptr, ptr %10, align 8, !tbaa !339
  %27 = call i32 @strcmp(ptr noundef %26, ptr noundef @.str.78) #15
  %28 = icmp ne i32 %27, 0
  br i1 %28, label %35, label %29

29:                                               ; preds = %25
  %30 = load i32, ptr %14, align 4, !tbaa !64
  %31 = load i32, ptr %9, align 4, !tbaa !64
  %32 = sub nsw i32 %30, %31
  %33 = load ptr, ptr %13, align 8, !tbaa !31
  %34 = getelementptr inbounds nuw %struct.VAAPIEncodeAV1Context, ptr %33, i32 0, i32 31
  store i32 %32, ptr %34, align 8, !tbaa !273
  br label %70

35:                                               ; preds = %25
  %36 = load ptr, ptr %10, align 8, !tbaa !339
  %37 = call i32 @strcmp(ptr noundef %36, ptr noundef @.str.79) #15
  %38 = icmp ne i32 %37, 0
  br i1 %38, label %45, label %39

39:                                               ; preds = %35
  %40 = load i32, ptr %14, align 4, !tbaa !64
  %41 = load i32, ptr %9, align 4, !tbaa !64
  %42 = sub nsw i32 %40, %41
  %43 = load ptr, ptr %13, align 8, !tbaa !31
  %44 = getelementptr inbounds nuw %struct.VAAPIEncodeAV1Context, ptr %43, i32 0, i32 32
  store i32 %42, ptr %44, align 4, !tbaa !275
  br label %69

45:                                               ; preds = %35
  %46 = load ptr, ptr %10, align 8, !tbaa !339
  %47 = call i32 @strcmp(ptr noundef %46, ptr noundef @.str.80) #15
  %48 = icmp ne i32 %47, 0
  br i1 %48, label %55, label %49

49:                                               ; preds = %45
  %50 = load i32, ptr %14, align 4, !tbaa !64
  %51 = load i32, ptr %9, align 4, !tbaa !64
  %52 = sub nsw i32 %50, %51
  %53 = load ptr, ptr %13, align 8, !tbaa !31
  %54 = getelementptr inbounds nuw %struct.VAAPIEncodeAV1Context, ptr %53, i32 0, i32 33
  store i32 %52, ptr %54, align 8, !tbaa !277
  br label %68

55:                                               ; preds = %45
  %56 = load ptr, ptr %10, align 8, !tbaa !339
  %57 = call i32 @strcmp(ptr noundef %56, ptr noundef @.str.81) #15
  %58 = icmp ne i32 %57, 0
  br i1 %58, label %67, label %59

59:                                               ; preds = %55
  %60 = load i32, ptr %14, align 4, !tbaa !64
  %61 = load ptr, ptr %13, align 8, !tbaa !31
  %62 = getelementptr inbounds nuw %struct.VAAPIEncodeAV1Context, ptr %61, i32 0, i32 33
  %63 = load i32, ptr %62, align 8, !tbaa !277
  %64 = sub nsw i32 %60, %63
  %65 = load ptr, ptr %13, align 8, !tbaa !31
  %66 = getelementptr inbounds nuw %struct.VAAPIEncodeAV1Context, ptr %65, i32 0, i32 34
  store i32 %64, ptr %66, align 4, !tbaa !279
  br label %67

67:                                               ; preds = %59, %55
  br label %68

68:                                               ; preds = %67, %49
  br label %69

69:                                               ; preds = %68, %39
  br label %70

70:                                               ; preds = %69, %29
  call void @llvm.lifetime.end.p0(i64 4, ptr %14) #12
  call void @llvm.lifetime.end.p0(i64 8, ptr %13) #12
  ret void
}