; Function Attrs: nounwind uwtable
define internal void @vaapi_encode_av1_trace_write_log(ptr noundef captures(none) %0, ptr noundef readonly captures(none) %1, i32 noundef %2, ptr noundef readonly captures(none) %3, ptr readnone captures(none) %4, i64 %5) #4 {
  %7 = getelementptr inbounds nuw i8, ptr %1, i64 16
  %8 = load ptr, ptr %7, align 8, !tbaa !288
  %9 = getelementptr inbounds nuw i8, ptr %1, i64 8
  %10 = load ptr, ptr %9, align 8, !tbaa !290
  %11 = ptrtoint ptr %8 to i64
  %12 = ptrtoint ptr %10 to i64
  %13 = sub i64 %11, %12
  %14 = getelementptr inbounds nuw i8, ptr %1, i64 4
  %15 = load i32, ptr %14, align 4, !tbaa !291
  %.tr.i = trunc i64 %13 to i32
  %16 = shl i32 %.tr.i, 3
  %reass.sub.i = sub i32 %16, %15
  %17 = add i32 %reass.sub.i, 32
  %.not = icmp slt i32 %17, %2
  br i1 %.not, label %18, label %19

18:                                               ; preds = %6
  tail call void (ptr, i32, ptr, ...) @av_log(ptr noundef null, i32 noundef 0, ptr noundef nonnull @.str.75, ptr noundef nonnull @.str.76, ptr noundef nonnull @.str.77, i32 noundef 101) #14
  tail call void @abort() #15
  unreachable

19:                                               ; preds = %6
  %20 = tail call i32 @strcmp(ptr noundef nonnull dereferenceable(1) %3, ptr noundef nonnull dereferenceable(11) @.str.78) #17
  %.not20 = icmp eq i32 %20, 0
  br i1 %.not20, label %21, label %24

21:                                               ; preds = %19
  %22 = sub nsw i32 %17, %2
  %23 = getelementptr inbounds nuw i8, ptr %0, i64 21440
  store i32 %22, ptr %23, align 8, !tbaa !234
  br label %41

24:                                               ; preds = %19
  %25 = tail call i32 @strcmp(ptr noundef nonnull dereferenceable(1) %3, ptr noundef nonnull dereferenceable(21) @.str.79) #17
  %.not21 = icmp eq i32 %25, 0
  br i1 %.not21, label %26, label %29

26:                                               ; preds = %24
  %27 = sub nsw i32 %17, %2
  %28 = getelementptr inbounds nuw i8, ptr %0, i64 21444
  store i32 %27, ptr %28, align 4, !tbaa !236
  br label %41

29:                                               ; preds = %24
  %30 = tail call i32 @strcmp(ptr noundef nonnull dereferenceable(1) %3, ptr noundef nonnull dereferenceable(21) @.str.80) #17
  %.not22 = icmp eq i32 %30, 0
  br i1 %.not22, label %31, label %34

31:                                               ; preds = %29
  %32 = sub nsw i32 %17, %2
  %33 = getelementptr inbounds nuw i8, ptr %0, i64 21448
  store i32 %32, ptr %33, align 8, !tbaa !238
  br label %41

34:                                               ; preds = %29
  %35 = tail call i32 @strcmp(ptr noundef nonnull dereferenceable(1) %3, ptr noundef nonnull dereferenceable(24) @.str.81) #17
  %.not23 = icmp eq i32 %35, 0
  br i1 %.not23, label %36, label %41

36:                                               ; preds = %34
  %37 = getelementptr inbounds nuw i8, ptr %0, i64 21448
  %38 = load i32, ptr %37, align 8, !tbaa !238
  %39 = sub nsw i32 %17, %38
  %40 = getelementptr inbounds nuw i8, ptr %0, i64 21452
  store i32 %39, ptr %40, align 4, !tbaa !240
  br label %41

41:                                               ; preds = %26, %34, %36, %31, %21
  ret void
}